; Function Attrs: mustprogress nofree norecurse nosync nounwind willreturn memory(argmem: read) uwtable
define range(i32 -1, 2) i32 @Sml_CompareMaxId(ptr noundef readonly captures(none) %0, ptr noundef readonly captures(none) %1) #5 {
  %3 = load i16, ptr %0, align 2, !tbaa !45
  %4 = getelementptr inbounds nuw i8, ptr %0, i64 2
  %5 = load i16, ptr %4, align 2, !tbaa !45
  %6 = tail call i16 @llvm.umax.i16(i16 %3, i16 %5)
  %7 = load i16, ptr %1, align 2, !tbaa !45
  %8 = getelementptr inbounds nuw i8, ptr %1, i64 2
  %9 = load i16, ptr %8, align 2, !tbaa !45
  %10 = tail call i16 @llvm.umax.i16(i16 %7, i16 %9)
  %.0 = tail call i32 @llvm.ucmp.i32.i16(i16 %6, i16 %10)
  ret i32 %.0
}